target datalayout = "e-m:e-p270:32:32-p271:32:32-p272:64:64-i64:64-i128:128-f80:128-n8:16:32:64-S128"
target triple = "x86_64-pc-linux-gnu"

%struct.sigaction = type { %union.anon, %struct.__sigset_t, i32, ptr }
%union.anon = type { ptr }
%struct.__sigset_t = type { [16 x i64] }

@prte_stacktrace_output_fileno = global i32 -1, align 4
@prte_stacktrace_output_filename_max_len = internal global i64 0, align 8
@prte_stacktrace_output_filename = external global ptr, align 8
@stderr = external global ptr, align 8
@stdout = external global ptr, align 8
@.str.3 = private unnamed_addr constant [5 x i8] c"none\00", align 1
@.str.4 = private unnamed_addr constant [7 x i8] c"stdout\00", align 1
@.str.5 = private unnamed_addr constant [7 x i8] c"stderr\00", align 1
@.str.6 = private unnamed_addr constant [5 x i8] c"file\00", align 1
@.str.7 = private unnamed_addr constant [6 x i8] c"file:\00", align 1
@.str.8 = private unnamed_addr constant [11 x i8] c"stacktrace\00", align 1
@prte_stacktrace_output_filename_base = internal global ptr null, align 8
@prte_signal_string = external global ptr, align 8
@.str.9 = private unnamed_addr constant [19 x i8] c"help-prte-util.txt\00", align 1
@.str.10 = private unnamed_addr constant [22 x i8] c"stacktrace bad signal\00", align 1
@.str.11 = private unnamed_addr constant [10 x i8] c":complain\00", align 1
@.str.12 = private unnamed_addr constant [27 x i8] c"stacktrace signal override\00", align 1

; Function Attrs: nounwind uwtable
define i32 @prte_util_register_stackhandlers() #0 {
  %1 = alloca i32, align 4
  %2 = alloca %struct.sigaction, align 8
  %3 = alloca %struct.sigaction, align 8
  %4 = alloca ptr, align 8
  %5 = alloca ptr, align 8
  %6 = alloca i8, align 1
  %7 = alloca i8, align 1
  %8 = alloca ptr, align 8
  %9 = alloca i32, align 4
  %10 = alloca i32, align 4
  %11 = alloca i32, align 4
  call void @llvm.lifetime.start.p0(i64 152, ptr %2) #8
  call void @llvm.lifetime.start.p0(i64 152, ptr %3) #8
  call void @llvm.lifetime.start.p0(i64 8, ptr %4) #8
  call void @llvm.lifetime.start.p0(i64 8, ptr %5) #8
  call void @llvm.lifetime.start.p0(i64 1, ptr %6) #8
  call void @llvm.lifetime.start.p0(i64 1, ptr %7) #8
  store i8 0, ptr %7, align 1, !tbaa !26
  %12 = load ptr, ptr @prte_stacktrace_output_filename, align 8, !tbaa !10
  %13 = icmp eq ptr null, %12
  br i1 %13, label %18, label %14

14:                                               ; preds = %0
  %15 = load ptr, ptr @prte_stacktrace_output_filename, align 8, !tbaa !10
  %16 = call i32 @strcasecmp(ptr noundef %15, ptr noundef @.str.3) #10
  %17 = icmp eq i32 0, %16
  br i1 %17, label %18, label %19

18:                                               ; preds = %14, %0
  store i32 -1, ptr @prte_stacktrace_output_fileno, align 4, !tbaa !3
  br label %83

19:                                               ; preds = %14
  %20 = load ptr, ptr @prte_stacktrace_output_filename, align 8, !tbaa !10
  %21 = call i32 @strcasecmp(ptr noundef %20, ptr noundef @.str.4) #10
  %22 = icmp eq i32 0, %21
  br i1 %22, label %23, label %26

23:                                               ; preds = %19
  %24 = load ptr, ptr @stdout, align 8, !tbaa !16
  %25 = call i32 @fileno(ptr noundef %24) #8
  store i32 %25, ptr @prte_stacktrace_output_fileno, align 4, !tbaa !3
  br label %82

26:                                               ; preds = %19
  %27 = load ptr, ptr @prte_stacktrace_output_filename, align 8, !tbaa !10
  %28 = call i32 @strcasecmp(ptr noundef %27, ptr noundef @.str.5) #10
  %29 = icmp eq i32 0, %28
  br i1 %29, label %30, label %33

30:                                               ; preds = %26
  %31 = load ptr, ptr @stderr, align 8, !tbaa !16
  %32 = call i32 @fileno(ptr noundef %31) #8
  store i32 %32, ptr @prte_stacktrace_output_fileno, align 4, !tbaa !3
  br label %81

33:                                               ; preds = %26
  %34 = load ptr, ptr @prte_stacktrace_output_filename, align 8, !tbaa !10
  %35 = call i32 @strcasecmp(ptr noundef %34, ptr noundef @.str.6) #10
  %36 = icmp eq i32 0, %35
  br i1 %36, label %41, label %37

37:                                               ; preds = %33
  %38 = load ptr, ptr @prte_stacktrace_output_filename, align 8, !tbaa !10
  %39 = call i32 @strcasecmp(ptr noundef %38, ptr noundef @.str.7) #10
  %40 = icmp eq i32 0, %39
  br i1 %40, label %41, label %47

41:                                               ; preds = %37, %33
  %42 = call noalias ptr @strdup(ptr noundef @.str.8) #8
  store ptr %42, ptr @prte_stacktrace_output_filename_base, align 8, !tbaa !10
  %43 = load ptr, ptr @prte_stacktrace_output_filename, align 8, !tbaa !10
  call void @free(ptr noundef %43) #8
  store i64 26, ptr @prte_stacktrace_output_filename_max_len, align 8, !tbaa !14
  %44 = load i64, ptr @prte_stacktrace_output_filename_max_len, align 8, !tbaa !14
  %45 = mul i64 1, %44
  %46 = call noalias ptr @malloc(i64 noundef %45) #11
  store ptr %46, ptr @prte_stacktrace_output_filename, align 8, !tbaa !10
  call void @set_stacktrace_filename()
  store i32 -1, ptr @prte_stacktrace_output_fileno, align 4, !tbaa !3
  br label %80

47:                                               ; preds = %37
  %48 = load ptr, ptr @prte_stacktrace_output_filename, align 8, !tbaa !10
  %49 = call i32 @strncasecmp(ptr noundef %48, ptr noundef @.str.7, i64 noundef 5) #10
  %50 = icmp eq i32 0, %49
  br i1 %50, label %51, label %76

51:                                               ; preds = %47
  call void @llvm.lifetime.start.p0(i64 8, ptr %8) #8
  store ptr null, ptr %8, align 8, !tbaa !10
  %52 = load ptr, ptr @prte_stacktrace_output_filename, align 8, !tbaa !10
  %53 = call ptr @strchr(ptr noundef %52, i32 noundef 58) #10
  store ptr %53, ptr %5, align 8, !tbaa !10
  %54 = load ptr, ptr %5, align 8, !tbaa !10
  %55 = icmp eq ptr null, %54
  br i1 %55, label %56, label %59

56:                                               ; preds = %51
  %57 = load ptr, ptr @prte_stacktrace_output_filename, align 8, !tbaa !10
  call void @free(ptr noundef %57) #8
  %58 = load ptr, ptr %8, align 8, !tbaa !10
  call void @free(ptr noundef %58) #8
  store i32 -13, ptr %1, align 4
  store i32 1, ptr %9, align 4
  br label %73

59:                                               ; preds = %51
  %60 = load ptr, ptr %5, align 8, !tbaa !10
  %61 = getelementptr inbounds nuw i8, ptr %60, i32 1
  store ptr %61, ptr %5, align 8, !tbaa !10
  %62 = load ptr, ptr %5, align 8, !tbaa !10
  %63 = call noalias ptr @strdup(ptr noundef %62) #8
  store ptr %63, ptr @prte_stacktrace_output_filename_base, align 8, !tbaa !10
  %64 = load ptr, ptr @prte_stacktrace_output_filename, align 8, !tbaa !10
  call void @free(ptr noundef %64) #8
  %65 = load ptr, ptr @prte_stacktrace_output_filename_base, align 8, !tbaa !10
  %66 = call i64 @strlen(ptr noundef %65) #10
  %67 = add i64 %66, 8
  %68 = add i64 %67, 8
  store i64 %68, ptr @prte_stacktrace_output_filename_max_len, align 8, !tbaa !14
  %69 = load i64, ptr @prte_stacktrace_output_filename_max_len, align 8, !tbaa !14
  %70 = mul i64 1, %69
  %71 = call noalias ptr @malloc(i64 noundef %70) #11
  store ptr %71, ptr @prte_stacktrace_output_filename, align 8, !tbaa !10
  call void @set_stacktrace_filename()
  store i32 -1, ptr @prte_stacktrace_output_fileno, align 4, !tbaa !3
  %72 = load ptr, ptr %8, align 8, !tbaa !10
  call void @free(ptr noundef %72) #8
  store i32 0, ptr %9, align 4
  br label %73

73:                                               ; preds = %59, %56
  call void @llvm.lifetime.end.p0(i64 8, ptr %8) #8
  %74 = load i32, ptr %9, align 4
  switch i32 %74, label %191 [
    i32 0, label %75
  ]

75:                                               ; preds = %73
  br label %79

76:                                               ; preds = %47
  %77 = load ptr, ptr @stderr, align 8, !tbaa !16
  %78 = call i32 @fileno(ptr noundef %77) #8
  store i32 %78, ptr @prte_stacktrace_output_fileno, align 4, !tbaa !3
  br label %79

79:                                               ; preds = %76, %75
  br label %80

80:                                               ; preds = %79, %41
  br label %81

81:                                               ; preds = %80, %30
  br label %82

82:                                               ; preds = %81, %23
  br label %83

83:                                               ; preds = %82, %18
  call void @llvm.memset.p0.i64(ptr align 8 %2, i8 0, i64 152, i1 false)
  %84 = getelementptr inbounds nuw %struct.sigaction, ptr %2, i32 0, i32 0
  store ptr @show_stackframe, ptr %84, align 8, !tbaa !24
  %85 = getelementptr inbounds nuw %struct.sigaction, ptr %2, i32 0, i32 2
  store i32 4, ptr %85, align 8, !tbaa !27
  %86 = getelementptr inbounds nuw %struct.sigaction, ptr %2, i32 0, i32 2
  %87 = load i32, ptr %86, align 8, !tbaa !27
  %88 = or i32 %87, -2147483648
  store i32 %88, ptr %86, align 8, !tbaa !27
  %89 = load ptr, ptr @prte_signal_string, align 8, !tbaa !10
  store ptr %89, ptr %5, align 8, !tbaa !10
  store ptr %89, ptr %4, align 8, !tbaa !10
  br label %90

90:                                               ; preds = %187, %83
  %91 = load ptr, ptr %5, align 8, !tbaa !10
  %92 = icmp ne ptr %91, null
  br i1 %92, label %93, label %98

93:                                               ; preds = %90
  %94 = load ptr, ptr %5, align 8, !tbaa !10
  %95 = load i8, ptr %94, align 1, !tbaa !24
  %96 = sext i8 %95 to i32
  %97 = icmp ne i32 %96, 0
  br label %98

98:                                               ; preds = %93, %90
  %99 = phi i1 [ false, %90 ], [ %97, %93 ]
  br i1 %99, label %100, label %190

100:                                              ; preds = %98
  call void @llvm.lifetime.start.p0(i64 4, ptr %10) #8
  call void @llvm.lifetime.start.p0(i64 4, ptr %11) #8
  store i8 0, ptr %6, align 1, !tbaa !26
  %101 = load ptr, ptr %4, align 8, !tbaa !10
  %102 = call i64 @strtol(ptr noundef %101, ptr noundef %5, i32 noundef 10) #8
  %103 = trunc i64 %102 to i32
  store i32 %103, ptr %10, align 4, !tbaa !3
  %104 = load i32, ptr %10, align 4, !tbaa !3
  %105 = icmp eq i32 0, %104
  br i1 %105, label %106, label %110

106:                                              ; preds = %100
  %107 = load ptr, ptr %4, align 8, !tbaa !10
  %108 = load ptr, ptr %5, align 8, !tbaa !10
  %109 = icmp eq ptr %107, %108
  br i1 %109, label %116, label %110

110:                                              ; preds = %106, %100
  %111 = load i32, ptr %10, align 4, !tbaa !3
  %112 = icmp sgt i32 0, %111
  br i1 %112, label %116, label %113

113:                                              ; preds = %110
  %114 = load i32, ptr %10, align 4, !tbaa !3
  %115 = icmp sle i32 65, %114
  br i1 %115, label %116, label %120

116:                                              ; preds = %113, %110, %106
  %117 = load ptr, ptr @prte_signal_string, align 8, !tbaa !10
  %118 = load ptr, ptr %4, align 8, !tbaa !10
  %119 = call i32 (ptr, ptr, i32, ...) @pmix_show_help(ptr noundef @.str.9, ptr noundef @.str.10, i32 noundef 1, ptr noundef %117, ptr noundef %118)
  store i32 -43, ptr %1, align 4
  store i32 1, ptr %9, align 4
  br label %184

120:                                              ; preds = %113
  %121 = load ptr, ptr %5, align 8, !tbaa !10
  %122 = icmp eq ptr %121, null
  br i1 %122, label %123, label %124

123:                                              ; preds = %120
  store i32 -5, ptr %1, align 4
  store i32 1, ptr %9, align 4
  br label %184

124:                                              ; preds = %120
  %125 = load ptr, ptr %5, align 8, !tbaa !10
  %126 = load i8, ptr %125, align 1, !tbaa !24
  %127 = sext i8 %126 to i32
  %128 = icmp eq i32 58, %127
  br i1 %128, label %129, label %136

129:                                              ; preds = %124
  %130 = load ptr, ptr %5, align 8, !tbaa !10
  %131 = call i32 @strncasecmp(ptr noundef %130, ptr noundef @.str.11, i64 noundef 9) #10
  %132 = icmp eq i32 0, %131
  br i1 %132, label %133, label %136

133:                                              ; preds = %129
  store i8 1, ptr %6, align 1, !tbaa !26
  %134 = load ptr, ptr %5, align 8, !tbaa !10
  %135 = getelementptr inbounds i8, ptr %134, i64 9
  store ptr %135, ptr %5, align 8, !tbaa !10
  br label %148

136:                                              ; preds = %129, %124
  %137 = load ptr, ptr %5, align 8, !tbaa !10
  %138 = load i8, ptr %137, align 1, !tbaa !24
  %139 = sext i8 %138 to i32
  %140 = icmp ne i32 44, %139
  br i1 %140, label %141, label %147

141:                                              ; preds = %136
  %142 = load ptr, ptr %5, align 8, !tbaa !10
  %143 = load i8, ptr %142, align 1, !tbaa !24
  %144 = sext i8 %143 to i32
  %145 = icmp ne i32 0, %144
  br i1 %145, label %146, label %147

146:                                              ; preds = %141
  store i32 -5, ptr %1, align 4
  store i32 1, ptr %9, align 4
  br label %184

147:                                              ; preds = %141, %136
  br label %148

148:                                              ; preds = %147, %133
  br label %149

149:                                              ; preds = %148
  br label %150

150:                                              ; preds = %149
  %151 = load i32, ptr %10, align 4, !tbaa !3
  %152 = call i32 @sigaction(i32 noundef %151, ptr noundef null, ptr noundef %3) #8
  store i32 %152, ptr %11, align 4, !tbaa !3
  %153 = load i32, ptr %11, align 4, !tbaa !3
  %154 = icmp ne i32 0, %153
  br i1 %154, label %155, label %156

155:                                              ; preds = %150
  store i32 -11, ptr %1, align 4
  store i32 1, ptr %9, align 4
  br label %184

156:                                              ; preds = %150
  %157 = getelementptr inbounds nuw %struct.sigaction, ptr %3, i32 0, i32 0
  %158 = load ptr, ptr %157, align 8, !tbaa !24
  %159 = icmp ne ptr inttoptr (i64 1 to ptr), %158
  br i1 %159, label %160, label %177

160:                                              ; preds = %156
  %161 = getelementptr inbounds nuw %struct.sigaction, ptr %3, i32 0, i32 0
  %162 = load ptr, ptr %161, align 8, !tbaa !24
  %163 = icmp ne ptr null, %162
  br i1 %163, label %164, label %177

164:                                              ; preds = %160
  %165 = load i8, ptr %7, align 1, !tbaa !26, !range !30, !noundef !31
  %166 = trunc i8 %165 to i1
  br i1 %166, label %176, label %167

167:                                              ; preds = %164
  %168 = load i8, ptr %6, align 1, !tbaa !26, !range !30, !noundef !31
  %169 = trunc i8 %168 to i1
  br i1 %169, label %170, label %176

170:                                              ; preds = %167
  %171 = load i32, ptr %10, align 4, !tbaa !3
  %172 = load i32, ptr %10, align 4, !tbaa !3
  %173 = load i32, ptr %10, align 4, !tbaa !3
  %174 = load ptr, ptr @prte_signal_string, align 8, !tbaa !10
  %175 = call i32 (ptr, ptr, i32, ...) @pmix_show_help(ptr noundef @.str.9, ptr noundef @.str.12, i32 noundef 1, i32 noundef %171, i32 noundef %172, i32 noundef %173, ptr noundef %174)
  store i8 1, ptr %7, align 1, !tbaa !26
  br label %176

176:                                              ; preds = %170, %167, %164
  br label %183

177:                                              ; preds = %160, %156
  %178 = load i32, ptr %10, align 4, !tbaa !3
  %179 = call i32 @sigaction(i32 noundef %178, ptr noundef %2, ptr noundef null) #8
  %180 = icmp ne i32 0, %179
  br i1 %180, label %181, label %182

181:                                              ; preds = %177
  store i32 -11, ptr %1, align 4
  store i32 1, ptr %9, align 4
  br label %184

182:                                              ; preds = %177
  br label %183

183:                                              ; preds = %182, %176
  store i32 0, ptr %9, align 4
  br label %184

184:                                              ; preds = %183, %181, %155, %146, %123, %116
  call void @llvm.lifetime.end.p0(i64 4, ptr %11) #8
  call void @llvm.lifetime.end.p0(i64 4, ptr %10) #8
  %185 = load i32, ptr %9, align 4
  switch i32 %185, label %191 [
    i32 0, label %186
  ]

186:                                              ; preds = %184
  br label %187

187:                                              ; preds = %186
  %188 = load ptr, ptr %5, align 8, !tbaa !10
  %189 = getelementptr inbounds i8, ptr %188, i64 1
  store ptr %189, ptr %4, align 8, !tbaa !10
  br label %90, !llvm.loop !32

190:                                              ; preds = %98
  store i32 0, ptr %1, align 4
  store i32 1, ptr %9, align 4
  br label %191

191:                                              ; preds = %190, %184, %73
  call void @llvm.lifetime.end.p0(i64 1, ptr %7) #8
  call void @llvm.lifetime.end.p0(i64 1, ptr %6) #8
  call void @llvm.lifetime.end.p0(i64 8, ptr %5) #8
  call void @llvm.lifetime.end.p0(i64 8, ptr %4) #8
  call void @llvm.lifetime.end.p0(i64 152, ptr %3) #8
  call void @llvm.lifetime.end.p0(i64 152, ptr %2) #8
  %192 = load i32, ptr %1, align 4
  ret i32 %192
}