; Function Attrs: nounwind uwtable
define range(i32 -43, 1) i32 @prte_util_register_stackhandlers() local_unnamed_addr #0 {
  %1 = alloca %struct.sigaction, align 8
  %2 = alloca %struct.sigaction, align 8
  %3 = alloca ptr, align 8
  call void @llvm.lifetime.start.p0(i64 152, ptr nonnull %1) #15
  call void @llvm.lifetime.start.p0(i64 152, ptr nonnull %2) #15
  call void @llvm.lifetime.start.p0(i64 8, ptr nonnull %3) #15
  %4 = load ptr, ptr @prte_stacktrace_output_filename, align 8, !tbaa !10
  %5 = icmp eq ptr %4, null
  br i1 %5, label %49, label %6

6:                                                ; preds = %0
  %7 = tail call i32 @strcasecmp(ptr noundef nonnull %4, ptr noundef nonnull @.str.3) #17
  %8 = icmp eq i32 %7, 0
  br i1 %8, label %49, label %9

9:                                                ; preds = %6
  %10 = tail call i32 @strcasecmp(ptr noundef nonnull %4, ptr noundef nonnull @.str.4) #17
  %11 = icmp eq i32 %10, 0
  br i1 %11, label %12, label %15

12:                                               ; preds = %9
  %13 = load ptr, ptr @stdout, align 8, !tbaa !19
  %14 = tail call i32 @fileno(ptr noundef %13) #15
  br label %49

15:                                               ; preds = %9
  %16 = tail call i32 @strcasecmp(ptr noundef nonnull %4, ptr noundef nonnull @.str.5) #17
  %17 = icmp eq i32 %16, 0
  br i1 %17, label %18, label %21

18:                                               ; preds = %15
  %19 = load ptr, ptr @stderr, align 8, !tbaa !19
  %20 = tail call i32 @fileno(ptr noundef %19) #15
  br label %49

21:                                               ; preds = %15
  %22 = tail call i32 @strcasecmp(ptr noundef nonnull %4, ptr noundef nonnull @.str.6) #17
  %23 = icmp eq i32 %22, 0
  br i1 %23, label %27, label %24

24:                                               ; preds = %21
  %25 = tail call i32 @strcasecmp(ptr noundef nonnull %4, ptr noundef nonnull @.str.7) #17
  %26 = icmp eq i32 %25, 0
  br i1 %26, label %27, label %35

27:                                               ; preds = %24, %21
  %28 = tail call noalias dereferenceable_or_null(11) ptr @strdup(ptr noundef nonnull @.str.8) #15
  store ptr %28, ptr @prte_stacktrace_output_filename_base, align 8, !tbaa !10
  tail call void @free(ptr noundef nonnull %4) #15
  store i64 26, ptr @prte_stacktrace_output_filename_max_len, align 8, !tbaa !21
  %29 = tail call noalias dereferenceable_or_null(26) ptr @malloc(i64 noundef 26) #18
  store ptr %29, ptr @prte_stacktrace_output_filename, align 8, !tbaa !10
  %30 = load i32, ptr getelementptr inbounds nuw (i8, ptr @prte_process_info, i64 256), align 8, !tbaa !14
  %31 = zext i32 %30 to i64
  %32 = tail call i32 @getpid() #15
  %33 = sext i32 %32 to i64
  %34 = tail call i32 (ptr, i64, ptr, ...) @snprintf(ptr noundef nonnull dereferenceable(1) %29, i64 noundef 26, ptr noundef nonnull @.str.13, ptr noundef %28, i64 noundef %31, i64 noundef %33) #15
  br label %49

35:                                               ; preds = %24
  %36 = tail call i32 @strncasecmp(ptr noundef nonnull %4, ptr noundef nonnull @.str.7, i64 noundef 5) #17
  %37 = icmp eq i32 %36, 0
  br i1 %37, label %38, label %46

38:                                               ; preds = %35
  %39 = tail call ptr @strchr(ptr noundef nonnull dereferenceable(1) %4, i32 noundef 58) #17
  %.not = icmp eq ptr %39, null
  br i1 %.not, label %.thread, label %40

.thread:                                          ; preds = %38
  tail call void @free(ptr noundef nonnull %4) #15
  br label %.critedge

40:                                               ; preds = %38
  %41 = getelementptr inbounds nuw i8, ptr %39, i64 1
  store ptr %41, ptr %3, align 8, !tbaa !10
  %42 = tail call noalias ptr @strdup(ptr noundef nonnull %41) #15
  store ptr %42, ptr @prte_stacktrace_output_filename_base, align 8, !tbaa !10
  tail call void @free(ptr noundef nonnull %4) #15
  %43 = tail call i64 @strlen(ptr noundef nonnull dereferenceable(1) %42) #17
  %44 = add i64 %43, 16
  store i64 %44, ptr @prte_stacktrace_output_filename_max_len, align 8, !tbaa !21
  %45 = tail call noalias ptr @malloc(i64 noundef %44) #18
  store ptr %45, ptr @prte_stacktrace_output_filename, align 8, !tbaa !10
  tail call fastcc void @set_stacktrace_filename()
  br label %49

46:                                               ; preds = %35
  %47 = load ptr, ptr @stderr, align 8, !tbaa !19
  %48 = tail call i32 @fileno(ptr noundef %47) #15
  br label %49

49:                                               ; preds = %0, %6, %40, %12, %27, %46, %18
  %.sink = phi i32 [ -1, %40 ], [ %14, %12 ], [ -1, %27 ], [ %48, %46 ], [ %20, %18 ], [ -1, %6 ], [ -1, %0 ]
  store i32 %.sink, ptr @prte_stacktrace_output_fileno, align 4, !tbaa !3
  %50 = getelementptr inbounds nuw i8, ptr %1, i64 8
  call void @llvm.memset.p0.i64(ptr noundef nonnull align 8 dereferenceable(152) %50, i8 0, i64 144, i1 false)
  store ptr @show_stackframe, ptr %1, align 8, !tbaa !24
  %51 = getelementptr inbounds nuw i8, ptr %1, i64 136
  store i32 -2147483644, ptr %51, align 8, !tbaa !26
  %52 = load ptr, ptr @prte_signal_string, align 8, !tbaa !10
  store ptr %52, ptr %3, align 8, !tbaa !10
  %.not3758 = icmp eq ptr %52, null
  br i1 %.not3758, label %.critedge, label %.lr.ph.preheader

.lr.ph.preheader:                                 ; preds = %49
  %53 = load i8, ptr %52, align 1, !tbaa !24
  %.not3876 = icmp eq i8 %53, 0
  br i1 %.not3876, label %.critedge, label %.lr.ph79

.lr.ph79:                                         ; preds = %.lr.ph.preheader, %.thread51
  %.0295978 = phi i1 [ %.13055, %.thread51 ], [ false, %.lr.ph.preheader ]
  %.0256077 = phi ptr [ %85, %.thread51 ], [ %52, %.lr.ph.preheader ]
  %54 = call i64 @strtol(ptr noundef nonnull %.0256077, ptr noundef nonnull %3, i32 noundef 10) #15
  %55 = trunc i64 %54 to i32
  %56 = icmp eq i32 %55, 0
  br i1 %56, label %57, label %60

57:                                               ; preds = %.lr.ph79
  %58 = load ptr, ptr %3, align 8, !tbaa !10
  %59 = icmp eq ptr %.0256077, %58
  br i1 %59, label %61, label %64

60:                                               ; preds = %.lr.ph79
  %or.cond43 = icmp ugt i32 %55, 64
  br i1 %or.cond43, label %61, label %thread-pre-split

61:                                               ; preds = %60, %57
  %62 = load ptr, ptr @prte_signal_string, align 8, !tbaa !10
  %63 = call i32 (ptr, ptr, i32, ...) @pmix_show_help(ptr noundef nonnull @.str.9, ptr noundef nonnull @.str.10, i32 noundef 1, ptr noundef %62, ptr noundef nonnull %.0256077) #15
  br label %.critedge

thread-pre-split:                                 ; preds = %60
  %.pr = load ptr, ptr %3, align 8, !tbaa !10
  br label %64

64:                                               ; preds = %thread-pre-split, %57
  %65 = phi ptr [ %.pr, %thread-pre-split ], [ %58, %57 ]
  %66 = icmp eq ptr %65, null
  br i1 %66, label %.critedge, label %67

67:                                               ; preds = %64
  %68 = load i8, ptr %65, align 1, !tbaa !24
  switch i8 %68, label %.critedge [
    i8 58, label %69
    i8 44, label %74
    i8 0, label %74
  ]

69:                                               ; preds = %67
  %70 = call i32 @strncasecmp(ptr noundef nonnull %65, ptr noundef nonnull @.str.11, i64 noundef 9) #17
  %71 = icmp eq i32 %70, 0
  br i1 %71, label %72, label %.critedge

72:                                               ; preds = %69
  %73 = getelementptr inbounds nuw i8, ptr %65, i64 9
  store ptr %73, ptr %3, align 8, !tbaa !10
  br label %74

74:                                               ; preds = %67, %67, %72
  %75 = phi ptr [ %73, %72 ], [ %65, %67 ], [ %65, %67 ]
  %.028.not = phi i1 [ false, %72 ], [ true, %67 ], [ true, %67 ]
  %76 = call i32 @sigaction(i32 noundef %55, ptr noundef null, ptr noundef nonnull %2) #15
  %.not41 = icmp eq i32 %76, 0
  br i1 %.not41, label %77, label %.critedge

77:                                               ; preds = %74
  %78 = load ptr, ptr %2, align 8, !tbaa !24
  %switch = icmp ult ptr %78, inttoptr (i64 2 to ptr)
  br i1 %switch, label %83, label %79

79:                                               ; preds = %77
  %brmerge = or i1 %.0295978, %.028.not
  br i1 %brmerge, label %.thread51, label %80

80:                                               ; preds = %79
  %81 = load ptr, ptr @prte_signal_string, align 8, !tbaa !10
  %82 = call i32 (ptr, ptr, i32, ...) @pmix_show_help(ptr noundef nonnull @.str.9, ptr noundef nonnull @.str.12, i32 noundef 1, i32 noundef %55, i32 noundef %55, i32 noundef %55, ptr noundef %81) #15
  br label %.thread51

83:                                               ; preds = %77
  %84 = call i32 @sigaction(i32 noundef %55, ptr noundef nonnull %1, ptr noundef null) #15
  %.not42 = icmp eq i32 %84, 0
  br i1 %.not42, label %.thread51, label %.critedge

.thread51:                                        ; preds = %80, %79, %83
  %.13055 = phi i1 [ %.0295978, %83 ], [ true, %80 ], [ %.0295978, %79 ]
  %85 = getelementptr inbounds nuw i8, ptr %75, i64 1
  %86 = load i8, ptr %75, align 1, !tbaa !24
  %.not38 = icmp eq i8 %86, 0
  br i1 %.not38, label %.critedge, label %.lr.ph79

.critedge:                                        ; preds = %67, %69, %74, %64, %.thread51, %83, %.lr.ph.preheader, %49, %61, %.thread
  %.2 = phi i32 [ -13, %.thread ], [ -43, %61 ], [ 0, %49 ], [ 0, %.lr.ph.preheader ], [ -11, %83 ], [ 0, %.thread51 ], [ -5, %64 ], [ -11, %74 ], [ -5, %69 ], [ -5, %67 ]
  call void @llvm.lifetime.end.p0(i64 8, ptr nonnull %3) #15
  call void @llvm.lifetime.end.p0(i64 152, ptr nonnull %2) #15
  call void @llvm.lifetime.end.p0(i64 152, ptr nonnull %1) #15
  ret i32 %.2
}